-----BEGIN CERTIFICATE-----
MIIEHjCCAwagAwIBAgIBATANBgkqhkiG9w0BAQUFADBnMQswCQYDVQQGEwJTRTEU
MBIGA1UEChMLQWRkVHJ1c3QgQUIxHTAbBgNVBAsTFEFkZFRydXN0IFRUUCBOZXR3
b3JrMSMwIQYDVQQDExpBZGRUcnVzdCBRdWFsaWZpZWQgQ0EgUm9vdDAeFw0wMDA1
MzAxMDQ0NTBaFw0yMDA1MzAxMDQ0NTBaMGcxCzAJBgNVBAYTAlNFMRQwEgYDVQQK
EwtBZGRUcnVzdCBBQjEdMBsGA1UECxMUQWRkVHJ1c3QgVFRQIE5ldHdvcmsxIzAh
BgNVBAMTGkFkZFRydXN0IFF1YWxpZmllZCBDQSBSb290MIIBIjANBgkqhkiG9w0B
AQEFAAOCAQ8AMIIBCgKCAQEA5B6a/twJWoekn0e+EV+vhDTbYjx5eLfpMLXsDBwq
xBb/4Oxx64r1EW7tTw2R0hIYLUkVAcKkIhPHEWT/IhKauY5cLwjPcWqzZwFZ8V1G
87B4pfYOQnrjfxvM0PC3KP0q6p6zsLkEqv32x7SxuCqg+1jxGaBvcCV+PmlKfw8i
2O+tCBGaKZnhqkRFmhJePp1tUvznoD1oL/BLcHwTOK28FSXx1s6rosAx1i+f4P8U
WfyEk9mHfExUE+uf0S0R+Bg6Ot4l2ffTQO2kBhLEO+GRwVY18BTcZTYJbqukB8c1
0cIDMzZbdSZtQvESa0NvS3GU+jQd7RNuyoB/mC9suWXY6QIDAQABo4HUMIHRMB0G
A1UdDgQWBBQ5lYtii1zJ1IC6WA+XPxUIQ8yYpzALBgNVHQ8EBAMCAQYwDwYDVR0T
AQH/BAUwAwEB/zCBkQYDVR0jBIGJMIGGgBQ5lYtii1zJ1IC6WA+XPxUIQ8yYp6Fr
pGkwZzELMAkGA1UEBhMCU0UxFDASBgNVBAoTC0FkZFRydXN0IEFCMR0wGwYDVQQL
ExRBZGRUcnVzdCBUVFAgTmV0d29yazEjMCEGA1UEAxMaQWRkVHJ1c3QgUXVhbGlm
aWVkIENBIFJvb3SCAQEwDQYJKoZIhvcNAQEFBQADggEBABmrder4i2VhlRO6aQTv
hsoToMeqT2QbPxj2qC0sVY8FtzDqQmodwCVRLae/DLPt7wh/bDxGGuoYQ992zPlm
hpwsaPXpF/gxsxjE1kh9I0xowX67ARRvxdlu3rsEQmr49lx95dr6h+sNNVJn0J6X
dgWTP5XHAeZpVTh/EGGZyeNfpso+gmNIquIISD6q8rKFYqa0p9m9N5xotS1WfbC3
P6CxB9bpT9zeRXEwMn8bLgn5v1Kh7sKAPgZcLlVAwRv1cEWw3F369nJad9Jjzc9Y
iQBCYz95OdBEsIJuQRno3eDBiFrRHnGTHyQwdOUeqN48Jzd/g66ed8/wMLH/S5no
xqE=
-----END CERTIFICATE-----
Certificate:
    Data:
        Version: 3 (0x2)
        Serial Number: 1 (0x1)
    Signature Algorithm: sha1WithRSAEncryption
        Issuer: C=SE, O=AddTrust AB, OU=AddTrust TTP Network, CN=AddTrust Qualified CA Root
        Validity
            Not Before: May 30 10:44:50 2000 GMT
            Not After : May 30 10:44:50 2020 GMT
        Subject: C=SE, O=AddTrust AB, OU=AddTrust TTP Network, CN=AddTrust Qualified CA Root
        Subject Public Key Info:
            Public Key Algorithm: rsaEncryption
                Public-Key: (2048 bit)
                Modulus:
                    00:e4:1e:9a:fe:dc:09:5a:87:a4:9f:47:be:11:5f:
                    af:84:34:db:62:3c:79:78:b7:e9:30:b5:ec:0c:1c:
                    2a:c4:16:ff:e0:ec:71:eb:8a:f5:11:6e:ed:4f:0d:
                    91:d2:12:18:2d:49:15:01:c2:a4:22:13:c7:11:64:
                    ff:22:12:9a:b9:8e:5c:2f:08:cf:71:6a:b3:67:01:
                    59:f1:5d:46:f3:b0:78:a5:f6:0e:42:7a:e3:7f:1b:
                    cc:d0:f0:b7:28:fd:2a:ea:9e:b3:b0:b9:04:aa:fd:
                    f6:c7:b4:b1:b8:2a:a0:fb:58:f1:19:a0:6f:70:25:
                    7e:3e:69:4a:7f:0f:22:d8:ef:ad:08:11:9a:29:99:
                    e1:aa:44:45:9a:12:5e:3e:9d:6d:52:fc:e7:a0:3d:
                    68:2f:f0:4b:70:7c:13:38:ad:bc:15:25:f1:d6:ce:
                    ab:a2:c0:31:d6:2f:9f:e0:ff:14:59:fc:84:93:d9:
                    87:7c:4c:54:13:eb:9f:d1:2d:11:f8:18:3a:3a:de:
                    25:d9:f7:d3:40:ed:a4:06:12:c4:3b:e1:91:c1:56:
                    35:f0:14:dc:65:36:09:6e:ab:a4:07:c7:35:d1:c2:
                    03:33:36:5b:75:26:6d:42:f1:12:6b:43:6f:4b:71:
                    94:fa:34:1d:ed:13:6e:ca:80:7f:98:2f:6c:b9:65:
                    d8:e9
                Exponent: 65537 (0x10001)
        X509v3 extensions:
            X509v3 Subject Key Identifier: 
                39:95:8B:62:8B:5C:C9:D4:80:BA:58:0F:97:3F:15:08:43:CC:98:A7
            X509v3 Key Usage: 
                Certificate Sign, CRL Sign
            X509v3 Basic Constraints: critical
                CA:TRUE
            X509v3 Authority Key Identifier: 
                keyid:39:95:8B:62:8B:5C:C9:D4:80:BA:58:0F:97:3F:15:08:43:CC:98:A7
                DirName:/C=SE/O=AddTrust AB/OU=AddTrust TTP Network/CN=AddTrust Qualified CA Root
                serial:01

    Signature Algorithm: sha1WithRSAEncryption
         19:ab:75:ea:f8:8b:65:61:95:13:ba:69:04:ef:86:ca:13:a0:
         c7:aa:4f:64:1b:3f:18:f6:a8:2d:2c:55:8f:05:b7:30:ea:42:
         6a:1d:c0:25:51:2d:a7:bf:0c:b3:ed:ef:08:7f:6c:3c:46:1a:
         ea:18:43:df:76:cc:f9:66:86:9c:2c:68:f5:e9:17:f8:31:b3:
         18:c4:d6:48:7d:23:4c:68:c1:7e:bb:01:14:6f:c5:d9:6e:de:
         bb:04:42:6a:f8:f6:5c:7d:e5:da:fa:87:eb:0d:35:52:67:d0:
         9e:97:76:05:93:3f:95:c7:01:e6:69:55:38:7f:10:61:99:c9:
         e3:5f:a6:ca:3e:82:63:48:aa:e2:08:48:3e:aa:f2:b2:85:62:
         a6:b4:a7:d9:bd:37:9c:68:b5:2d:56:7d:b0:b7:3f:a0:b1:07:
         d6:e9:4f:dc:de:45:71:30:32:7f:1b:2e:09:f9:bf:52:a1:ee:
         c2:80:3e:06:5c:2e:55:40:c1:1b:f5:70:45:b0:dc:5d:fa:f6:
         72:5a:77:d2:63:cd:cf:58:89:00:42:63:3f:79:39:d0:44:b0:
         82:6e:41:19:e8:dd:e0:c1:88:5a:d1:1e:71:93:1f:24:30:74:
         e5:1e:a8:de:3c:27:37:7f:83:ae:9e:77:cf:f0:30:b1:ff:4b:
         99:e8:c6:a1
SHA1 Fingerprint=4D:23:78:EC:91:95:39:B5:00:7F:75:8F:03:3B:21:1E:C5:4D:8B:CF
