-----BEGIN CERTIFICATE-----
MIIEPzCCAyegAwIBAgIBATANBgkqhkiG9w0BAQUFADB+MQswCQYDVQQGEwJHQjEb
MBkGA1UECAwSR3JlYXRlciBNYW5jaGVzdGVyMRAwDgYDVQQHDAdTYWxmb3JkMRow
GAYDVQQKDBFDb21vZG8gQ0EgTGltaXRlZDEkMCIGA1UEAwwbU2VjdXJlIENlcnRp
ZmljYXRlIFNlcnZpY2VzMB4XDTA0MDEwMTAwMDAwMFoXDTI4MTIzMTIzNTk1OVow
fjELMAkGA1UEBhMCR0IxGzAZBgNVBAgMEkdyZWF0ZXIgTWFuY2hlc3RlcjEQMA4G
A1UEBwwHU2FsZm9yZDEaMBgGA1UECgwRQ29tb2RvIENBIExpbWl0ZWQxJDAiBgNV
BAMMG1NlY3VyZSBDZXJ0aWZpY2F0ZSBTZXJ2aWNlczCCASIwDQYJKoZIhvcNAQEB
BQADggEPADCCAQoCggEBAMBxM4KK0HDrc4eCQNUd5MvJDkKQ+d40uaG6EfQlhfPM
cm3ye5drswfxdySRXyWP9nQ95IDC+DwN879A6vfIUtFyb+/Iq0G4bi4XKpVpDM3S
HpR7LZQdqnXXs5jLrLxkU0C8j6ysNstcrbvd4JQX7NFc0L/vpZXJkMWwrPsbQ996
CF23uPJAGysnnlDOXmWCiIxe004MeuoIkbY2qitC++rCoznl2yY4rYsK7hljxxwk
3wN42ubqwUcaCwtGCd0C/N7Lh1/XMGNooa7cMqG6vv5Eq2i2pRcV/b3Vp6ea5EQz
6YiO/O1R65NxTq0B50SOqy3LqP4BSUjwwN3HaNiS/j0CAwEAAaOBxzCBxDAdBgNV
HQ4EFgQUPNiTiMLAggnMAZkGkyDpnnAJY08wDgYDVR0PAQH/BAQDAgEGMA8GA1Ud
EwEB/wQFMAMBAf8wgYEGA1UdHwR6MHgwO6A5oDeGNWh0dHA6Ly9jcmwuY29tb2Rv
Y2EuY29tL1NlY3VyZUNlcnRpZmljYXRlU2VydmljZXMuY3JsMDmgN6A1hjNodHRw
Oi8vY3JsLmNvbW9kby5uZXQvU2VjdXJlQ2VydGlmaWNhdGVTZXJ2aWNlcy5jcmww
DQYJKoZIhvcNAQEFBQADggEBAIcBbSMdflsXfcFhMs+P5/OKlFlm4J4oqF7Tt/Q0
5qo5spcWxYJvMqTpjOev/e/C6LlLqqP05tqNZSH7uoDrJiiFGv45jN5bBAS0VPmj
Z55B+glSzAVIqMk/IQQezkhr/IXownuvf7fM+F86/TXGDe+X3EyrEeFryzHRbPtI
gKvcnDe4IRRLDXE97IMzbtFuMhbsmMcWi1mmNKsFVy2T96oTy9IT4rcuO81rUBcJ
aD61JlfutuC23bkpgHl9j6PwpCikFcSF9CfUa7/lXORlAnZUtOM3ZiTTGWHIUhDl
izeauan5Hb/qmZJhlv8BzaFfDbxxvA6sCx1HRR3B7Hzs/Sk=
-----END CERTIFICATE-----
Certificate:
    Data:
        Version: 3 (0x2)
        Serial Number: 1 (0x1)
    Signature Algorithm: sha1WithRSAEncryption
        Issuer: C=GB, ST=Greater Manchester, L=Salford, O=Comodo CA Limited, CN=Secure Certificate Services
        Validity
            Not Before: Jan  1 00:00:00 2004 GMT
            Not After : Dec 31 23:59:59 2028 GMT
        Subject: C=GB, ST=Greater Manchester, L=Salford, O=Comodo CA Limited, CN=Secure Certificate Services
        Subject Public Key Info:
            Public Key Algorithm: rsaEncryption
                Public-Key: (2048 bit)
                Modulus:
                    00:c0:71:33:82:8a:d0:70:eb:73:87:82:40:d5:1d:
                    e4:cb:c9:0e:42:90:f9:de:34:b9:a1:ba:11:f4:25:
                    85:f3:cc:72:6d:f2:7b:97:6b:b3:07:f1:77:24:91:
                    5f:25:8f:f6:74:3d:e4:80:c2:f8:3c:0d:f3:bf:40:
                    ea:f7:c8:52:d1:72:6f:ef:c8:ab:41:b8:6e:2e:17:
                    2a:95:69:0c:cd:d2:1e:94:7b:2d:94:1d:aa:75:d7:
                    b3:98:cb:ac:bc:64:53:40:bc:8f:ac:ac:36:cb:5c:
                    ad:bb:dd:e0:94:17:ec:d1:5c:d0:bf:ef:a5:95:c9:
                    90:c5:b0:ac:fb:1b:43:df:7a:08:5d:b7:b8:f2:40:
                    1b:2b:27:9e:50:ce:5e:65:82:88:8c:5e:d3:4e:0c:
                    7a:ea:08:91:b6:36:aa:2b:42:fb:ea:c2:a3:39:e5:
                    db:26:38:ad:8b:0a:ee:19:63:c7:1c:24:df:03:78:
                    da:e6:ea:c1:47:1a:0b:0b:46:09:dd:02:fc:de:cb:
                    87:5f:d7:30:63:68:a1:ae:dc:32:a1:ba:be:fe:44:
                    ab:68:b6:a5:17:15:fd:bd:d5:a7:a7:9a:e4:44:33:
                    e9:88:8e:fc:ed:51:eb:93:71:4e:ad:01:e7:44:8e:
                    ab:2d:cb:a8:fe:01:49:48:f0:c0:dd:c7:68:d8:92:
                    fe:3d
                Exponent: 65537 (0x10001)
        X509v3 extensions:
            X509v3 Subject Key Identifier: 
                3C:D8:93:88:C2:C0:82:09:CC:01:99:06:93:20:E9:9E:70:09:63:4F
            X509v3 Key Usage: critical
                Certificate Sign, CRL Sign
            X509v3 Basic Constraints: critical
                CA:TRUE
            X509v3 CRL Distribution Points: 

                Full Name:
                  URI:http://crl.comodoca.com/SecureCertificateServices.crl

                Full Name:
                  URI:http://crl.comodo.net/SecureCertificateServices.crl

    Signature Algorithm: sha1WithRSAEncryption
         87:01:6d:23:1d:7e:5b:17:7d:c1:61:32:cf:8f:e7:f3:8a:94:
         59:66:e0:9e:28:a8:5e:d3:b7:f4:34:e6:aa:39:b2:97:16:c5:
         82:6f:32:a4:e9:8c:e7:af:fd:ef:c2:e8:b9:4b:aa:a3:f4:e6:
         da:8d:65:21:fb:ba:80:eb:26:28:85:1a:fe:39:8c:de:5b:04:
         04:b4:54:f9:a3:67:9e:41:fa:09:52:cc:05:48:a8:c9:3f:21:
         04:1e:ce:48:6b:fc:85:e8:c2:7b:af:7f:b7:cc:f8:5f:3a:fd:
         35:c6:0d:ef:97:dc:4c:ab:11:e1:6b:cb:31:d1:6c:fb:48:80:
         ab:dc:9c:37:b8:21:14:4b:0d:71:3d:ec:83:33:6e:d1:6e:32:
         16:ec:98:c7:16:8b:59:a6:34:ab:05:57:2d:93:f7:aa:13:cb:
         d2:13:e2:b7:2e:3b:cd:6b:50:17:09:68:3e:b5:26:57:ee:b6:
         e0:b6:dd:b9:29:80:79:7d:8f:a3:f0:a4:28:a4:15:c4:85:f4:
         27:d4:6b:bf:e5:5c:e4:65:02:76:54:b4:e3:37:66:24:d3:19:
         61:c8:52:10:e5:8b:37:9a:b9:a9:f9:1d:bf:ea:99:92:61:96:
         ff:01:cd:a1:5f:0d:bc:71:bc:0e:ac:0b:1d:47:45:1d:c1:ec:
         7c:ec:fd:29
SHA1 Fingerprint=4A:65:D5:F4:1D:EF:39:B8:B8:90:4A:4A:D3:64:81:33:CF:C7:A1:D1
