-----BEGIN CERTIFICATE-----
MIIEFTCCAv2gAwIBAgIBATANBgkqhkiG9w0BAQUFADBkMQswCQYDVQQGEwJTRTEU
MBIGA1UEChMLQWRkVHJ1c3QgQUIxHTAbBgNVBAsTFEFkZFRydXN0IFRUUCBOZXR3
b3JrMSAwHgYDVQQDExdBZGRUcnVzdCBQdWJsaWMgQ0EgUm9vdDAeFw0wMDA1MzAx
MDQxNTBaFw0yMDA1MzAxMDQxNTBaMGQxCzAJBgNVBAYTAlNFMRQwEgYDVQQKEwtB
ZGRUcnVzdCBBQjEdMBsGA1UECxMUQWRkVHJ1c3QgVFRQIE5ldHdvcmsxIDAeBgNV
BAMTF0FkZFRydXN0IFB1YmxpYyBDQSBSb290MIIBIjANBgkqhkiG9w0BAQEFAAOC
AQ8AMIIBCgKCAQEA6Rowj4OIFMEg2Dybjxt+A3S72mnTRqX4jsIMEZBRpS9mVEBV
6tsfSlbunyNu9DnLoblv8n75XYcmYZ4c+OLspoH4IcUkzBEMP9smcnrHAZcHF/nX
GCwwfQ56HmIexkvA/X1id9NEHif2P0tEs7c42TkfYNVRknMDtABp4/MUTu7R3AnP
dzRGULD4EfL+OHn3Bzn+UZKXC1sIXzSGAa2Il+tmzV7R/9x98oTaunet3IAIx6eH
1lWfl2royBFkuucZKT8Rs3iQhCBSWxHveNCD9tVIkNAwHM+A+WD+eeSI8t0A65RF
62WUaUC6wNW0uLp9BBGo6zEFlpROWCGOn9Bg/QIDAQABo4HRMIHOMB0GA1UdDgQW
BBSBPjfYkrAfd59ctKtzquf2NGAv+jALBgNVHQ8EBAMCAQYwDwYDVR0TAQH/BAUw
AwEB/zCBjgYDVR0jBIGGMIGDgBSBPjfYkrAfd59ctKtzquf2NGAv+qFopGYwZDEL
MAkGA1UEBhMCU0UxFDASBgNVBAoTC0FkZFRydXN0IEFCMR0wGwYDVQQLExRBZGRU
cnVzdCBUVFAgTmV0d29yazEgMB4GA1UEAxMXQWRkVHJ1c3QgUHVibGljIENBIFJv
b3SCAQEwDQYJKoZIhvcNAQEFBQADggEBAAP3FUr4JNojVhaTdt02KLmuG7jD8WS6
IBh4lSknVwW8fCr0uVFV2ocC3g8WFzH4qnkuCRO7r7IgGRLlk/lL+YPoRNWyQSW/
iHVv/xD8SlTQX/D67zZzfRs2RcYhbbQVuE7PnFylPVoAjgbjPGsye/Kf8Lb93/Ao
GEjwxrzQvzSAlsJKsW2Ox5BF3i9nrEUEo3rcVZLJR2bYGozH7ZxOmuASu7VqTITh
4SINhwBk/ox9Yjllpu9CtoAlEmEBqCQTcAARJl/6NVDFSMwGR+gn2HCNX2TmoUQm
XiLsks3/QppEIW1cxeMiHV9HEufOX1362KqxMy3ZdvJOOjMMK7MtkAY=
-----END CERTIFICATE-----
Certificate:
    Data:
        Version: 3 (0x2)
        Serial Number: 1 (0x1)
    Signature Algorithm: sha1WithRSAEncryption
        Issuer: C=SE, O=AddTrust AB, OU=AddTrust TTP Network, CN=AddTrust Public CA Root
        Validity
            Not Before: May 30 10:41:50 2000 GMT
            Not After : May 30 10:41:50 2020 GMT
        Subject: C=SE, O=AddTrust AB, OU=AddTrust TTP Network, CN=AddTrust Public CA Root
        Subject Public Key Info:
            Public Key Algorithm: rsaEncryption
                Public-Key: (2048 bit)
                Modulus:
                    00:e9:1a:30:8f:83:88:14:c1:20:d8:3c:9b:8f:1b:
                    7e:03:74:bb:da:69:d3:46:a5:f8:8e:c2:0c:11:90:
                    51:a5:2f:66:54:40:55:ea:db:1f:4a:56:ee:9f:23:
                    6e:f4:39:cb:a1:b9:6f:f2:7e:f9:5d:87:26:61:9e:
                    1c:f8:e2:ec:a6:81:f8:21:c5:24:cc:11:0c:3f:db:
                    26:72:7a:c7:01:97:07:17:f9:d7:18:2c:30:7d:0e:
                    7a:1e:62:1e:c6:4b:c0:fd:7d:62:77:d3:44:1e:27:
                    f6:3f:4b:44:b3:b7:38:d9:39:1f:60:d5:51:92:73:
                    03:b4:00:69:e3:f3:14:4e:ee:d1:dc:09:cf:77:34:
                    46:50:b0:f8:11:f2:fe:38:79:f7:07:39:fe:51:92:
                    97:0b:5b:08:5f:34:86:01:ad:88:97:eb:66:cd:5e:
                    d1:ff:dc:7d:f2:84:da:ba:77:ad:dc:80:08:c7:a7:
                    87:d6:55:9f:97:6a:e8:c8:11:64:ba:e7:19:29:3f:
                    11:b3:78:90:84:20:52:5b:11:ef:78:d0:83:f6:d5:
                    48:90:d0:30:1c:cf:80:f9:60:fe:79:e4:88:f2:dd:
                    00:eb:94:45:eb:65:94:69:40:ba:c0:d5:b4:b8:ba:
                    7d:04:11:a8:eb:31:05:96:94:4e:58:21:8e:9f:d0:
                    60:fd
                Exponent: 65537 (0x10001)
        X509v3 extensions:
            X509v3 Subject Key Identifier: 
                81:3E:37:D8:92:B0:1F:77:9F:5C:B4:AB:73:AA:E7:F6:34:60:2F:FA
            X509v3 Key Usage: 
                Certificate Sign, CRL Sign
            X509v3 Basic Constraints: critical
                CA:TRUE
            X509v3 Authority Key Identifier: 
                keyid:81:3E:37:D8:92:B0:1F:77:9F:5C:B4:AB:73:AA:E7:F6:34:60:2F:FA
                DirName:/C=SE/O=AddTrust AB/OU=AddTrust TTP Network/CN=AddTrust Public CA Root
                serial:01

    Signature Algorithm: sha1WithRSAEncryption
         03:f7:15:4a:f8:24:da:23:56:16:93:76:dd:36:28:b9:ae:1b:
         b8:c3:f1:64:ba:20:18:78:95:29:27:57:05:bc:7c:2a:f4:b9:
         51:55:da:87:02:de:0f:16:17:31:f8:aa:79:2e:09:13:bb:af:
         b2:20:19:12:e5:93:f9:4b:f9:83:e8:44:d5:b2:41:25:bf:88:
         75:6f:ff:10:fc:4a:54:d0:5f:f0:fa:ef:36:73:7d:1b:36:45:
         c6:21:6d:b4:15:b8:4e:cf:9c:5c:a5:3d:5a:00:8e:06:e3:3c:
         6b:32:7b:f2:9f:f0:b6:fd:df:f0:28:18:48:f0:c6:bc:d0:bf:
         34:80:96:c2:4a:b1:6d:8e:c7:90:45:de:2f:67:ac:45:04:a3:
         7a:dc:55:92:c9:47:66:d8:1a:8c:c7:ed:9c:4e:9a:e0:12:bb:
         b5:6a:4c:84:e1:e1:22:0d:87:00:64:fe:8c:7d:62:39:65:a6:
         ef:42:b6:80:25:12:61:01:a8:24:13:70:00:11:26:5f:fa:35:
         50:c5:48:cc:06:47:e8:27:d8:70:8d:5f:64:e6:a1:44:26:5e:
         22:ec:92:cd:ff:42:9a:44:21:6d:5c:c5:e3:22:1d:5f:47:12:
         e7:ce:5f:5d:fa:d8:aa:b1:33:2d:d9:76:f2:4e:3a:33:0c:2b:
         b3:2d:90:06
SHA1 Fingerprint=2A:B6:28:48:5E:78:FB:F3:AD:9E:79:10:DD:6B:DF:99:72:2C:96:E5
