-----BEGIN CERTIFICATE-----
MIIEQzCCAyugAwIBAgIBATANBgkqhkiG9w0BAQUFADB/MQswCQYDVQQGEwJHQjEb
MBkGA1UECAwSR3JlYXRlciBNYW5jaGVzdGVyMRAwDgYDVQQHDAdTYWxmb3JkMRow
GAYDVQQKDBFDb21vZG8gQ0EgTGltaXRlZDElMCMGA1UEAwwcVHJ1c3RlZCBDZXJ0
aWZpY2F0ZSBTZXJ2aWNlczAeFw0wNDAxMDEwMDAwMDBaFw0yODEyMzEyMzU5NTla
MH8xCzAJBgNVBAYTAkdCMRswGQYDVQQIDBJHcmVhdGVyIE1hbmNoZXN0ZXIxEDAO
BgNVBAcMB1NhbGZvcmQxGjAYBgNVBAoMEUNvbW9kbyBDQSBMaW1pdGVkMSUwIwYD
VQQDDBxUcnVzdGVkIENlcnRpZmljYXRlIFNlcnZpY2VzMIIBIjANBgkqhkiG9w0B
AQEFAAOCAQ8AMIIBCgKCAQEA33FvNlhTWvI2VFeAxHQIIO0Yfyod5jWaHiWsnOWW
fnJSoBVC21ndZHoa0Lh73TkVvFVIxO06AOoxEbrycXQaZ7jPM8yoMa+j49d/vzMt
TGo87IvDktJTdyR0nAducPy9C1t2ul/y/9c3S0pgePfw+spwtOpZqqPOSC+pw7IL
fhdyFgymBwwbOM/JYrc/oJOlh0Hyt3BAd9i+FHzjqMB6juljatEPmsbS9Is6FARW
1O24zG71++IsWL1/T2sr92AkWCTOJu80kTrV44HQsvAEAtdbtz6SrGsSivnkBbA7
kUlcsutT6vifR4buv5XAwAaf0lteERv0xwQ1KdJVXOTt6wIDAQABo4HJMIHGMB0G
A1UdDgQWBBTFe1i97doladL3WRaoszLAeydb9DAOBgNVHQ8BAf8EBAMCAQYwDwYD
VR0TAQH/BAUwAwEB/zCBgwYDVR0fBHwwejA8oDqgOIY2aHR0cDovL2NybC5jb21v
ZG9jYS5jb20vVHJ1c3RlZENlcnRpZmljYXRlU2VydmljZXMuY3JsMDqgOKA2hjRo
dHRwOi8vY3JsLmNvbW9kby5uZXQvVHJ1c3RlZENlcnRpZmljYXRlU2VydmljZXMu
Y3JsMA0GCSqGSIb3DQEBBQUAA4IBAQDIk4E7ibSvuIQSTI3S8NtwuleGFTQQuS9/
HrCoiWChisJ3DFBKmwCL2Iv0QeLQg4pKHBQGsKNoBXAxMKdTmw7pSqBYaWcOrp32
pSxBvzwGa+RZzG0Q8ZZvH9/0BAKkn0U+yNj6NkZEUD+Cl5EfKNsYEYwq5GWDVxIS
jBc/lDb+XbDABHcTuPQV1T84zJQ6VdCsmPW6AF/ghhmBeC8owH7TzEIK9a5QoNE+
xqFx7D+gIIxmOom0jtTYsU0lR+4viMi14QVFwL4Ucd56/Y57fU0IlqUSc/Atyjcn
dBInTMu2l+nZrghtWjlA3QVHdWpaIbOjGM9O9y5Xt5hwXsjEeLBi
-----END CERTIFICATE-----
Certificate:
    Data:
        Version: 3 (0x2)
        Serial Number: 1 (0x1)
    Signature Algorithm: sha1WithRSAEncryption
        Issuer: C=GB, ST=Greater Manchester, L=Salford, O=Comodo CA Limited, CN=Trusted Certificate Services
        Validity
            Not Before: Jan  1 00:00:00 2004 GMT
            Not After : Dec 31 23:59:59 2028 GMT
        Subject: C=GB, ST=Greater Manchester, L=Salford, O=Comodo CA Limited, CN=Trusted Certificate Services
        Subject Public Key Info:
            Public Key Algorithm: rsaEncryption
                Public-Key: (2048 bit)
                Modulus:
                    00:df:71:6f:36:58:53:5a:f2:36:54:57:80:c4:74:
                    08:20:ed:18:7f:2a:1d:e6:35:9a:1e:25:ac:9c:e5:
                    96:7e:72:52:a0:15:42:db:59:dd:64:7a:1a:d0:b8:
                    7b:dd:39:15:bc:55:48:c4:ed:3a:00:ea:31:11:ba:
                    f2:71:74:1a:67:b8:cf:33:cc:a8:31:af:a3:e3:d7:
                    7f:bf:33:2d:4c:6a:3c:ec:8b:c3:92:d2:53:77:24:
                    74:9c:07:6e:70:fc:bd:0b:5b:76:ba:5f:f2:ff:d7:
                    37:4b:4a:60:78:f7:f0:fa:ca:70:b4:ea:59:aa:a3:
                    ce:48:2f:a9:c3:b2:0b:7e:17:72:16:0c:a6:07:0c:
                    1b:38:cf:c9:62:b7:3f:a0:93:a5:87:41:f2:b7:70:
                    40:77:d8:be:14:7c:e3:a8:c0:7a:8e:e9:63:6a:d1:
                    0f:9a:c6:d2:f4:8b:3a:14:04:56:d4:ed:b8:cc:6e:
                    f5:fb:e2:2c:58:bd:7f:4f:6b:2b:f7:60:24:58:24:
                    ce:26:ef:34:91:3a:d5:e3:81:d0:b2:f0:04:02:d7:
                    5b:b7:3e:92:ac:6b:12:8a:f9:e4:05:b0:3b:91:49:
                    5c:b2:eb:53:ea:f8:9f:47:86:ee:bf:95:c0:c0:06:
                    9f:d2:5b:5e:11:1b:f4:c7:04:35:29:d2:55:5c:e4:
                    ed:eb
                Exponent: 65537 (0x10001)
        X509v3 extensions:
            X509v3 Subject Key Identifier: 
                C5:7B:58:BD:ED:DA:25:69:D2:F7:59:16:A8:B3:32:C0:7B:27:5B:F4
            X509v3 Key Usage: critical
                Certificate Sign, CRL Sign
            X509v3 Basic Constraints: critical
                CA:TRUE
            X509v3 CRL Distribution Points: 

                Full Name:
                  URI:http://crl.comodoca.com/TrustedCertificateServices.crl

                Full Name:
                  URI:http://crl.comodo.net/TrustedCertificateServices.crl

    Signature Algorithm: sha1WithRSAEncryption
         c8:93:81:3b:89:b4:af:b8:84:12:4c:8d:d2:f0:db:70:ba:57:
         86:15:34:10:b9:2f:7f:1e:b0:a8:89:60:a1:8a:c2:77:0c:50:
         4a:9b:00:8b:d8:8b:f4:41:e2:d0:83:8a:4a:1c:14:06:b0:a3:
         68:05:70:31:30:a7:53:9b:0e:e9:4a:a0:58:69:67:0e:ae:9d:
         f6:a5:2c:41:bf:3c:06:6b:e4:59:cc:6d:10:f1:96:6f:1f:df:
         f4:04:02:a4:9f:45:3e:c8:d8:fa:36:46:44:50:3f:82:97:91:
         1f:28:db:18:11:8c:2a:e4:65:83:57:12:12:8c:17:3f:94:36:
         fe:5d:b0:c0:04:77:13:b8:f4:15:d5:3f:38:cc:94:3a:55:d0:
         ac:98:f5:ba:00:5f:e0:86:19:81:78:2f:28:c0:7e:d3:cc:42:
         0a:f5:ae:50:a0:d1:3e:c6:a1:71:ec:3f:a0:20:8c:66:3a:89:
         b4:8e:d4:d8:b1:4d:25:47:ee:2f:88:c8:b5:e1:05:45:c0:be:
         14:71:de:7a:fd:8e:7b:7d:4d:08:96:a5:12:73:f0:2d:ca:37:
         27:74:12:27:4c:cb:b6:97:e9:d9:ae:08:6d:5a:39:40:dd:05:
         47:75:6a:5a:21:b3:a3:18:cf:4e:f7:2e:57:b7:98:70:5e:c8:
         c4:78:b0:62
SHA1 Fingerprint=E1:9F:E3:0E:8B:84:60:9E:80:9B:17:0D:72:A8:C5:BA:6E:14:09:BD
