-----BEGIN CERTIFICATE-----
MIIFaTCCA1GgAwIBAgIJAMMDmu5QkG4oMA0GCSqGSIb3DQEBBQUAMFIxCzAJBgNV
BAYTAlNLMRMwEQYDVQQHEwpCcmF0aXNsYXZhMRMwEQYDVQQKEwpEaXNpZyBhLnMu
MRkwFwYDVQQDExBDQSBEaXNpZyBSb290IFIxMB4XDTEyMDcxOTA5MDY1NloXDTQy
MDcxOTA5MDY1NlowUjELMAkGA1UEBhMCU0sxEzARBgNVBAcTCkJyYXRpc2xhdmEx
EzARBgNVBAoTCkRpc2lnIGEucy4xGTAXBgNVBAMTEENBIERpc2lnIFJvb3QgUjEw
ggIiMA0GCSqGSIb3DQEBAQUAA4ICDwAwggIKAoICAQCqw3j33Jijp1pedxiy3QRk
D2P9m5YJgNXoqqXinCaUOuiZc4yd39ffg/N4T0Dhf9Kn0uXKE5Pn7cZ3Xza1lK/o
OI7bm+V8u8yN63Vz4STN5qctGS7Y1oprFOsIYgrY3LMATcMjfF9DCCMyEtztDK3A
fQ+lekLZWnDZv6fXARz2m6uOt0qGeKAeVjGu74IKgEH3G8muqzIm1Cxr7X1r5OJe
IgpFy4QxTaz+29FHuvlglzmxZcfe+5nkCiKxLU3lSCZpq+Kq8/v8kiky6bM+TR8n
oc2OuRf7JT7JbvN32g0S9l3HuzYQ1VTW8+DiR0jm3hTaYVKvJrT1cU/J19IG32PK
/yHoWQbgCNWEFVP3Q+V8xaCJmGtzxmjOZd69fwX3se72V6FglcXM6pM6vpmumwKj
rckWtc7dXpl4fho5frLABaTAgqWjR56M6ly2vGfb5ipN0gTco65F97yLnByn1tUD
3AjLLhbKXEAz6GfDLuemROoRRRw1ZS0eRWEkG4IupZ0zXWX4Qfkuy5Q/H6MMMSRE
7cderVC6xkGbrPAXZcD4XW9boAo0PO7X6oifmPmvTiT6l7Jkdtqr9O3jw2Dv1fkC
yC2fg69naQanMVXVz0tv/wQFx1isXxYb5dKj6zHbHzMVTdDypVP1y+E9Tmgt2BLd
qvLmTZtJ5cUoobqwWsagtQIDAQABo0IwQDAPBgNVHRMBAf8EBTADAQH/MA4GA1Ud
DwEB/wQEAwIBBjAdBgNVHQ4EFgQUiQq0OJMa5qvum5EY+fU8PjXQ04IwDQYJKoZI
hvcNAQEFBQADggIBADKL9p1Kyb4U5YysOMo6CdQbzoaz3evUuii+Eq5FLAR0rBNR
xVgYZk2C2tXck8An4b58n1KeElb21Zyp9HWc+jcSjxyT7Ff+Bw+r1RL3D65hXlaA
SfX8MPWbTx9BLxyE04nH4toCdu0Jz2zBuByDHBb6lM19oMgY0sidbvW9adRtPTXo
HqJPYNcHKfyyo6SdbhWSVhlMCrDpfNIZTUJG7L399ldb3Zh+pE3McgODWF3vkzpB
emOqfDqo9ayk0d2iLbYq/J8BjuIQscTK5GfbVSUZP/3oNn6z4eGBrxEWi1CXYBmC
AMBrTXO40RMHPuq2MU/wQppt4hF05ZSsjYSVPCGvxdpHyN85YmLLW1AL14FABZyb
7bq2ix4Eb5YgOe2kfSnbSM6C3NQCjR0EMVrHS/BsYVLXtFHCgWzN4funodKSds+x
DzdYpPJScWc/DIh4gInByLUfkmO+p3qKViwaqKactV2zY9ATIKHrkWzQjX2v3wvk
F7mGnjixlAxYjOBVqjtjbZqJYLhkKpLGN/R+Q0O3c+gB53+XD9fyexn9GtePyfqF
a3qdnom2piiZk4hA9z7NUaPK6u95RyG1/jLix8NRb76AdPCkwzryT+lf3xkK8jsT
Q6wxpLPn6/wY1gGp8yqPNg7rtLG8t0zJa7+h89n07eLw4+1knj0vllJPgFOL
-----END CERTIFICATE-----
Certificate:
    Data:
        Version: 3 (0x2)
        Serial Number: 14052245610670616104 (0xc3039aee50906e28)
    Signature Algorithm: sha1WithRSAEncryption
        Issuer: C=SK, L=Bratislava, O=Disig a.s., CN=CA Disig Root R1
        Validity
            Not Before: Jul 19 09:06:56 2012 GMT
            Not After : Jul 19 09:06:56 2042 GMT
        Subject: C=SK, L=Bratislava, O=Disig a.s., CN=CA Disig Root R1
        Subject Public Key Info:
            Public Key Algorithm: rsaEncryption
                Public-Key: (4096 bit)
                Modulus:
                    00:aa:c3:78:f7:dc:98:a3:a7:5a:5e:77:18:b2:dd:
                    04:64:0f:63:fd:9b:96:09:80:d5:e8:aa:a5:e2:9c:
                    26:94:3a:e8:99:73:8c:9d:df:d7:df:83:f3:78:4f:
                    40:e1:7f:d2:a7:d2:e5:ca:13:93:e7:ed:c6:77:5f:
                    36:b5:94:af:e8:38:8e:db:9b:e5:7c:bb:cc:8d:eb:
                    75:73:e1:24:cd:e6:a7:2d:19:2e:d8:d6:8a:6b:14:
                    eb:08:62:0a:d8:dc:b3:00:4d:c3:23:7c:5f:43:08:
                    23:32:12:dc:ed:0c:ad:c0:7d:0f:a5:7a:42:d9:5a:
                    70:d9:bf:a7:d7:01:1c:f6:9b:ab:8e:b7:4a:86:78:
                    a0:1e:56:31:ae:ef:82:0a:80:41:f7:1b:c9:ae:ab:
                    32:26:d4:2c:6b:ed:7d:6b:e4:e2:5e:22:0a:45:cb:
                    84:31:4d:ac:fe:db:d1:47:ba:f9:60:97:39:b1:65:
                    c7:de:fb:99:e4:0a:22:b1:2d:4d:e5:48:26:69:ab:
                    e2:aa:f3:fb:fc:92:29:32:e9:b3:3e:4d:1f:27:a1:
                    cd:8e:b9:17:fb:25:3e:c9:6e:f3:77:da:0d:12:f6:
                    5d:c7:bb:36:10:d5:54:d6:f3:e0:e2:47:48:e6:de:
                    14:da:61:52:af:26:b4:f5:71:4f:c9:d7:d2:06:df:
                    63:ca:ff:21:e8:59:06:e0:08:d5:84:15:53:f7:43:
                    e5:7c:c5:a0:89:98:6b:73:c6:68:ce:65:de:bd:7f:
                    05:f7:b1:ee:f6:57:a1:60:95:c5:cc:ea:93:3a:be:
                    99:ae:9b:02:a3:ad:c9:16:b5:ce:dd:5e:99:78:7e:
                    1a:39:7e:b2:c0:05:a4:c0:82:a5:a3:47:9e:8c:ea:
                    5c:b6:bc:67:db:e6:2a:4d:d2:04:dc:a3:ae:45:f7:
                    bc:8b:9c:1c:a7:d6:d5:03:dc:08:cb:2e:16:ca:5c:
                    40:33:e8:67:c3:2e:e7:a6:44:ea:11:45:1c:35:65:
                    2d:1e:45:61:24:1b:82:2e:a5:9d:33:5d:65:f8:41:
                    f9:2e:cb:94:3f:1f:a3:0c:31:24:44:ed:c7:5e:ad:
                    50:ba:c6:41:9b:ac:f0:17:65:c0:f8:5d:6f:5b:a0:
                    0a:34:3c:ee:d7:ea:88:9f:98:f9:af:4e:24:fa:97:
                    b2:64:76:da:ab:f4:ed:e3:c3:60:ef:d5:f9:02:c8:
                    2d:9f:83:af:67:69:06:a7:31:55:d5:cf:4b:6f:ff:
                    04:05:c7:58:ac:5f:16:1b:e5:d2:a3:eb:31:db:1f:
                    33:15:4d:d0:f2:a5:53:f5:cb:e1:3d:4e:68:2d:d8:
                    12:dd:aa:f2:e6:4d:9b:49:e5:c5:28:a1:ba:b0:5a:
                    c6:a0:b5
                Exponent: 65537 (0x10001)
        X509v3 extensions:
            X509v3 Basic Constraints: critical
                CA:TRUE
            X509v3 Key Usage: critical
                Certificate Sign, CRL Sign
            X509v3 Subject Key Identifier: 
                89:0A:B4:38:93:1A:E6:AB:EE:9B:91:18:F9:F5:3C:3E:35:D0:D3:82
    Signature Algorithm: sha1WithRSAEncryption
         32:8b:f6:9d:4a:c9:be:14:e5:8c:ac:38:ca:3a:09:d4:1b:ce:
         86:b3:dd:eb:d4:ba:28:be:12:ae:45:2c:04:74:ac:13:51:c5:
         58:18:66:4d:82:da:d5:dc:93:c0:27:e1:be:7c:9f:52:9e:12:
         56:f6:d5:9c:a9:f4:75:9c:fa:37:12:8f:1c:93:ec:57:fe:07:
         0f:ab:d5:12:f7:0f:ae:61:5e:56:80:49:f5:fc:30:f5:9b:4f:
         1f:41:2f:1c:84:d3:89:c7:e2:da:02:76:ed:09:cf:6c:c1:b8:
         1c:83:1c:16:fa:94:cd:7d:a0:c8:18:d2:c8:9d:6e:f5:bd:69:
         d4:6d:3d:35:e8:1e:a2:4f:60:d7:07:29:fc:b2:a3:a4:9d:6e:
         15:92:56:19:4c:0a:b0:e9:7c:d2:19:4d:42:46:ec:bd:fd:f6:
         57:5b:dd:98:7e:a4:4d:cc:72:03:83:58:5d:ef:93:3a:41:7a:
         63:aa:7c:3a:a8:f5:ac:a4:d1:dd:a2:2d:b6:2a:fc:9f:01:8e:
         e2:10:b1:c4:ca:e4:67:db:55:25:19:3f:fd:e8:36:7e:b3:e1:
         e1:81:af:11:16:8b:50:97:60:19:82:00:c0:6b:4d:73:b8:d1:
         13:07:3e:ea:b6:31:4f:f0:42:9a:6d:e2:11:74:e5:94:ac:8d:
         84:95:3c:21:af:c5:da:47:c8:df:39:62:62:cb:5b:50:0b:d7:
         81:40:05:9c:9b:ed:ba:b6:8b:1e:04:6f:96:20:39:ed:a4:7d:
         29:db:48:ce:82:dc:d4:02:8d:1d:04:31:5a:c7:4b:f0:6c:61:
         52:d7:b4:51:c2:81:6c:cd:e1:fb:a7:a1:d2:92:76:cf:b1:0f:
         37:58:a4:f2:52:71:67:3f:0c:88:78:80:89:c1:c8:b5:1f:92:
         63:be:a7:7a:8a:56:2c:1a:a8:a6:9c:b5:5d:b3:63:d0:13:20:
         a1:eb:91:6c:d0:8d:7d:af:df:0b:e4:17:b9:86:9e:38:b1:94:
         0c:58:8c:e0:55:aa:3b:63:6d:9a:89:60:b8:64:2a:92:c6:37:
         f4:7e:43:43:b7:73:e8:01:e7:7f:97:0f:d7:f2:7b:19:fd:1a:
         d7:8f:c9:fa:85:6b:7a:9d:9e:89:b6:a6:28:99:93:88:40:f7:
         3e:cd:51:a3:ca:ea:ef:79:47:21:b5:fe:32:e2:c7:c3:51:6f:
         be:80:74:f0:a4:c3:3a:f2:4f:e9:5f:df:19:0a:f2:3b:13:43:
         ac:31:a4:b3:e7:eb:fc:18:d6:01:a9:f3:2a:8f:36:0e:eb:b4:
         b1:bc:b7:4c:c9:6b:bf:a1:f3:d9:f4:ed:e2:f0:e3:ed:64:9e:
         3d:2f:96:52:4f:80:53:8b
SHA1 Fingerprint=8E:1C:74:F8:A6:20:B9:E5:8A:F4:61:FA:EC:2B:47:56:51:1A:52:C6
